target datalayout = "e-m:e-p270:32:32-p271:32:32-p272:64:64-i64:64-i128:128-f80:128-n8:16:32:64-S128"
target triple = "x86_64-pc-linux-gnu"

%class.symbol = type { ptr }
%class.ast_manager = type { %class.reslimit, %class.small_object_allocator, %class.family_manager, %class.parray_manager, %class.dependency_manager, %class.parray_manager.10, %class.ptr_vector.13, i32, i8, %class.ast_table, %class.obj_map, %class.id_gen, %class.id_gen, ptr, ptr, ptr, ptr, ptr, i32, i8, [3 x i8], %class.u_map, ptr, i8, i8, ptr, %class.symbol, %class.obj_map.21, ptr }
%class.reslimit = type { %"struct.std::atomic", i8, i64, i64, %class.svector, %class.ptr_vector }
%"struct.std::atomic" = type { %"struct.std::__atomic_base" }
%"struct.std::__atomic_base" = type { i32 }
%class.svector = type { %class.vector }
%class.vector = type { ptr }
%class.ptr_vector = type { %class.vector.0 }
%class.vector.0 = type { ptr }
%class.small_object_allocator = type { [32 x ptr], [32 x ptr], i64 }
%class.family_manager = type { i32, %class.symbol_table, %class.svector.4 }
%class.symbol_table = type { %class.core_hashtable, %class.vector.1, %class.svector.2 }
%class.core_hashtable = type <{ ptr, i32, i32, i32, [4 x i8] }>
%class.vector.1 = type { ptr }
%class.svector.2 = type { %class.vector.3 }
%class.vector.3 = type { ptr }
%class.svector.4 = type { %class.vector.5 }
%class.vector.5 = type { ptr }
%class.parray_manager = type { ptr, ptr, %class.ptr_vector.6, %class.ptr_vector.6 }
%class.ptr_vector.6 = type { %class.vector.7 }
%class.vector.7 = type { ptr }
%class.dependency_manager = type { ptr, ptr, %class.ptr_vector.8 }
%class.ptr_vector.8 = type { %class.vector.9 }
%class.vector.9 = type { ptr }
%class.parray_manager.10 = type { ptr, ptr, %class.ptr_vector.11, %class.ptr_vector.11 }
%class.ptr_vector.11 = type { %class.vector.12 }
%class.vector.12 = type { ptr }
%class.ptr_vector.13 = type { %class.vector.14 }
%class.vector.14 = type { ptr }
%class.ast_table = type { %class.chashtable }
%class.chashtable = type { ptr, i32, i32, i32, i32, i32, i32, i32, ptr, ptr, ptr }
%class.obj_map = type { %class.core_hashtable.15 }
%class.core_hashtable.15 = type <{ ptr, i32, i32, i32, [4 x i8] }>
%class.id_gen = type { i32, %class.svector.17 }
%class.svector.17 = type { %class.vector.18 }
%class.vector.18 = type { ptr }
%class.u_map = type { %class.map }
%class.map = type { %class.table2map }
%class.table2map = type { %class.core_hashtable.19 }
%class.core_hashtable.19 = type <{ ptr, i32, i32, i32, [4 x i8] }>
%class.obj_map.21 = type { %class.core_hashtable.22 }
%class.core_hashtable.22 = type <{ ptr, i32, i32, i32, [4 x i8] }>
%"class.datalog::dl_decl_util" = type <{ ptr, %class.scoped_ptr, %class.scoped_ptr.45, i32, [4 x i8] }>
%class.scoped_ptr = type { ptr }
%class.scoped_ptr.45 = type { ptr }

@.str.58 = private unnamed_addr constant [17 x i8] c"datalog_relation\00", align 1

; Function Attrs: mustprogress uwtable
define linkonce_odr hidden noundef i32 @_ZN11ast_manager12mk_family_idERK6symbol(ptr noundef nonnull align 8 dereferenceable(976) %0, ptr noundef nonnull align 8 dereferenceable(8) %1) #4 comdat align 2 {
  %3 = alloca ptr, align 8
  %4 = alloca ptr, align 8
  store ptr %0, ptr %3, align 8, !tbaa !54
  store ptr %1, ptr %4, align 8, !tbaa !55
  %5 = load ptr, ptr %3, align 8
  %6 = getelementptr inbounds nuw %class.ast_manager, ptr %5, i32 0, i32 2
  %7 = load ptr, ptr %4, align 8, !tbaa !55
  %8 = call noundef i32 @_ZN14family_manager12mk_family_idERK6symbol(ptr noundef nonnull align 8 dereferenceable(56) %6, ptr noundef nonnull align 8 dereferenceable(8) %7)
  ret i32 %8
}

; Function Attrs: mustprogress uwtable
define hidden noundef i32 @_ZNK7datalog12dl_decl_util13get_family_idEv(ptr noundef nonnull align 8 dereferenceable(28) %0) #4 align 2 {
  %2 = alloca ptr, align 8
  %3 = alloca %class.symbol, align 8
  store ptr %0, ptr %2, align 8, !tbaa !183
  %4 = load ptr, ptr %2, align 8
  %5 = getelementptr inbounds nuw %"class.datalog::dl_decl_util", ptr %4, i32 0, i32 3
  %6 = load i32, ptr %5, align 8, !tbaa !185
  %7 = icmp eq i32 %6, -1
  br i1 %7, label %8, label %13

8:                                                ; preds = %1
  %9 = getelementptr inbounds nuw %"class.datalog::dl_decl_util", ptr %4, i32 0, i32 0
  %10 = load ptr, ptr %9, align 8, !tbaa !199
  call void @llvm.lifetime.start.p0(i64 8, ptr %3) #3
  call void @_ZN6symbolC1EPKc(ptr noundef nonnull align 8 dereferenceable(8) %3, ptr noundef @.str.58)
  %11 = call noundef i32 @_ZN11ast_manager12mk_family_idERK6symbol(ptr noundef nonnull align 8 dereferenceable(976) %10, ptr noundef nonnull align 8 dereferenceable(8) %3)
  %12 = getelementptr inbounds nuw %"class.datalog::dl_decl_util", ptr %4, i32 0, i32 3
  store i32 %11, ptr %12, align 8, !tbaa !185
  call void @llvm.lifetime.end.p0(i64 8, ptr %3) #3
  br label %13

13:                                               ; preds = %8, %1
  %14 = getelementptr inbounds nuw %"class.datalog::dl_decl_util", ptr %4, i32 0, i32 3
  %15 = load i32, ptr %14, align 8, !tbaa !185
  ret i32 %15
}