; Function Attrs: mustprogress uwtable
define hidden noundef i32 @_ZNK7datalog12dl_decl_util13get_family_idEv(ptr noundef nonnull align 8 captures(none) dereferenceable(28) %0) local_unnamed_addr #3 align 2 {
  %2 = alloca %class.symbol, align 8
  %3 = getelementptr inbounds nuw i8, ptr %0, i64 24
  %4 = load i32, ptr %3, align 8, !tbaa !156
  %5 = icmp eq i32 %4, -1
  br i1 %5, label %6, label %10

6:                                                ; preds = %1
  %7 = load ptr, ptr %0, align 8, !tbaa !163
  call void @llvm.lifetime.start.p0(i64 8, ptr nonnull %2) #22
  call void @_ZN6symbolC1EPKc(ptr noundef nonnull align 8 dereferenceable(8) %2, ptr noundef nonnull @.str.58)
  %8 = getelementptr inbounds nuw i8, ptr %7, i64 560
  %9 = call noundef i32 @_ZN14family_manager12mk_family_idERK6symbol(ptr noundef nonnull align 8 dereferenceable(56) %8, ptr noundef nonnull align 8 dereferenceable(8) %2)
  store i32 %9, ptr %3, align 8, !tbaa !156
  call void @llvm.lifetime.end.p0(i64 8, ptr nonnull %2) #22
  br label %10

10:                                               ; preds = %6, %1
  %11 = phi i32 [ %9, %6 ], [ %4, %1 ]
  ret i32 %11
}